target datalayout = "e-m:e-p270:32:32-p271:32:32-p272:64:64-i64:64-i128:128-f80:128-n8:16:32:64-S128"
target triple = "x86_64-pc-linux-gnu"

%struct.AVStream = type { ptr, i32, i32, ptr, ptr, %struct.AVRational, i64, i64, i64, i32, i32, %struct.AVRational, ptr, %struct.AVRational, %struct.AVPacket, i32, %struct.AVRational, i32 }
%struct.AVPacket = type { ptr, i64, i64, ptr, i32, i32, i32, ptr, i32, i64, i64, ptr, ptr, %struct.AVRational }
%struct.AVRational = type { i32, i32 }
%struct.AVBufferRef = type { ptr, ptr, i64 }
%struct.AVCodecParameters = type { i32, i32, i32, ptr, i32, ptr, i32, i32, i64, i32, i32, i32, i32, i32, i32, %struct.AVRational, %struct.AVRational, i32, i32, i32, i32, i32, i32, i32, %struct.AVChannelLayout, i32, i32, i32, i32, i32, i32 }
%struct.AVChannelLayout = type { i32, i32, %union.anon.2, ptr }
%union.anon.2 = type { i64 }

; Function Attrs: nounwind uwtable
define i32 @ff_add_attached_pic(ptr noundef %0, ptr noundef %1, ptr noundef %2, ptr noundef %3, i32 noundef %4) #0 {
  %6 = alloca i32, align 4
  %7 = alloca ptr, align 8
  %8 = alloca ptr, align 8
  %9 = alloca ptr, align 8
  %10 = alloca ptr, align 8
  %11 = alloca i32, align 4
  %12 = alloca ptr, align 8
  %13 = alloca ptr, align 8
  %14 = alloca i32, align 4
  %15 = alloca i32, align 4
  store ptr %0, ptr %7, align 8, !tbaa !35
  store ptr %1, ptr %8, align 8, !tbaa !4
  store ptr %2, ptr %9, align 8, !tbaa !69
  store ptr %3, ptr %10, align 8, !tbaa !70
  store i32 %4, ptr %11, align 4, !tbaa !33
  call void @llvm.lifetime.start.p0(i64 8, ptr %12) #6
  %16 = load ptr, ptr %8, align 8, !tbaa !4
  store ptr %16, ptr %12, align 8, !tbaa !4
  call void @llvm.lifetime.start.p0(i64 8, ptr %13) #6
  call void @llvm.lifetime.start.p0(i64 4, ptr %14) #6
  %17 = load ptr, ptr %12, align 8, !tbaa !4
  %18 = icmp ne ptr %17, null
  br i1 %18, label %24, label %19

19:                                               ; preds = %5
  %20 = load ptr, ptr %7, align 8, !tbaa !35
  %21 = call ptr @avformat_new_stream(ptr noundef %20, ptr noundef null)
  store ptr %21, ptr %12, align 8, !tbaa !4
  %22 = icmp ne ptr %21, null
  br i1 %22, label %24, label %23

23:                                               ; preds = %19
  store i32 -12, ptr %6, align 4
  store i32 1, ptr %15, align 4
  br label %85

24:                                               ; preds = %19, %5
  %25 = load ptr, ptr %12, align 8, !tbaa !4
  %26 = getelementptr inbounds nuw %struct.AVStream, ptr %25, i32 0, i32 14
  store ptr %26, ptr %13, align 8, !tbaa !72
  %27 = load ptr, ptr %10, align 8, !tbaa !70
  %28 = icmp ne ptr %27, null
  br i1 %28, label %29, label %50

29:                                               ; preds = %24
  %30 = load ptr, ptr %13, align 8, !tbaa !72
  call void @av_packet_unref(ptr noundef %30)
  %31 = load ptr, ptr %10, align 8, !tbaa !70
  %32 = load ptr, ptr %31, align 8, !tbaa !74
  %33 = load ptr, ptr %13, align 8, !tbaa !72
  %34 = getelementptr inbounds nuw %struct.AVPacket, ptr %33, i32 0, i32 0
  store ptr %32, ptr %34, align 8, !tbaa !75
  %35 = load ptr, ptr %10, align 8, !tbaa !70
  %36 = load ptr, ptr %35, align 8, !tbaa !74
  %37 = getelementptr inbounds nuw %struct.AVBufferRef, ptr %36, i32 0, i32 1
  %38 = load ptr, ptr %37, align 8, !tbaa !76
  %39 = load ptr, ptr %13, align 8, !tbaa !72
  %40 = getelementptr inbounds nuw %struct.AVPacket, ptr %39, i32 0, i32 3
  store ptr %38, ptr %40, align 8, !tbaa !79
  %41 = load ptr, ptr %10, align 8, !tbaa !70
  %42 = load ptr, ptr %41, align 8, !tbaa !74
  %43 = getelementptr inbounds nuw %struct.AVBufferRef, ptr %42, i32 0, i32 2
  %44 = load i64, ptr %43, align 8, !tbaa !80
  %45 = sub i64 %44, 64
  %46 = trunc i64 %45 to i32
  %47 = load ptr, ptr %13, align 8, !tbaa !72
  %48 = getelementptr inbounds nuw %struct.AVPacket, ptr %47, i32 0, i32 4
  store i32 %46, ptr %48, align 8, !tbaa !81
  %49 = load ptr, ptr %10, align 8, !tbaa !70
  store ptr null, ptr %49, align 8, !tbaa !74
  br label %59

50:                                               ; preds = %24
  %51 = load ptr, ptr %9, align 8, !tbaa !69
  %52 = load ptr, ptr %13, align 8, !tbaa !72
  %53 = load i32, ptr %11, align 4, !tbaa !33
  %54 = call i32 @av_get_packet(ptr noundef %51, ptr noundef %52, i32 noundef %53)
  store i32 %54, ptr %14, align 4, !tbaa !33
  %55 = load i32, ptr %14, align 4, !tbaa !33
  %56 = icmp slt i32 %55, 0
  br i1 %56, label %57, label %58

57:                                               ; preds = %50
  br label %77

58:                                               ; preds = %50
  br label %59

59:                                               ; preds = %58, %29
  %60 = load ptr, ptr %12, align 8, !tbaa !4
  %61 = getelementptr inbounds nuw %struct.AVStream, ptr %60, i32 0, i32 9
  %62 = load i32, ptr %61, align 8, !tbaa !65
  %63 = or i32 %62, 1024
  store i32 %63, ptr %61, align 8, !tbaa !65
  %64 = load ptr, ptr %12, align 8, !tbaa !4
  %65 = getelementptr inbounds nuw %struct.AVStream, ptr %64, i32 0, i32 3
  %66 = load ptr, ptr %65, align 8, !tbaa !82
  %67 = getelementptr inbounds nuw %struct.AVCodecParameters, ptr %66, i32 0, i32 0
  store i32 0, ptr %67, align 8, !tbaa !83
  %68 = load ptr, ptr %12, align 8, !tbaa !4
  %69 = getelementptr inbounds nuw %struct.AVStream, ptr %68, i32 0, i32 1
  %70 = load i32, ptr %69, align 8, !tbaa !86
  %71 = load ptr, ptr %13, align 8, !tbaa !72
  %72 = getelementptr inbounds nuw %struct.AVPacket, ptr %71, i32 0, i32 5
  store i32 %70, ptr %72, align 4, !tbaa !87
  %73 = load ptr, ptr %13, align 8, !tbaa !72
  %74 = getelementptr inbounds nuw %struct.AVPacket, ptr %73, i32 0, i32 6
  %75 = load i32, ptr %74, align 8, !tbaa !88
  %76 = or i32 %75, 1
  store i32 %76, ptr %74, align 8, !tbaa !88
  store i32 0, ptr %6, align 4
  store i32 1, ptr %15, align 4
  br label %85

77:                                               ; preds = %57
  %78 = load ptr, ptr %8, align 8, !tbaa !4
  %79 = icmp ne ptr %78, null
  br i1 %79, label %83, label %80

80:                                               ; preds = %77
  %81 = load ptr, ptr %7, align 8, !tbaa !35
  %82 = load ptr, ptr %12, align 8, !tbaa !4
  call void @ff_remove_stream(ptr noundef %81, ptr noundef %82)
  br label %83

83:                                               ; preds = %80, %77
  %84 = load i32, ptr %14, align 4, !tbaa !33
  store i32 %84, ptr %6, align 4
  store i32 1, ptr %15, align 4
  br label %85

85:                                               ; preds = %83, %59, %23
  call void @llvm.lifetime.end.p0(i64 4, ptr %14) #6
  call void @llvm.lifetime.end.p0(i64 8, ptr %13) #6
  call void @llvm.lifetime.end.p0(i64 8, ptr %12) #6
  %86 = load i32, ptr %6, align 4
  ret i32 %86
}