; Function Attrs: nounwind uwtable
define range(i32 -2147483648, 1) i32 @ff_add_attached_pic(ptr noundef %0, ptr noundef %1, ptr noundef %2, ptr noundef captures(address_is_null) %3, i32 noundef %4) local_unnamed_addr #2 {
  %.not = icmp eq ptr %1, null
  br i1 %.not, label %6, label %8

6:                                                ; preds = %5
  %7 = tail call ptr @avformat_new_stream(ptr noundef %0, ptr noundef null) #6
  %.not31 = icmp eq ptr %7, null
  br i1 %.not31, label %37, label %8

8:                                                ; preds = %6, %5
  %.026 = phi ptr [ %1, %5 ], [ %7, %6 ]
  %9 = getelementptr inbounds nuw i8, ptr %.026, i64 96
  %.not32 = icmp eq ptr %3, null
  br i1 %.not32, label %20, label %10

10:                                               ; preds = %8
  tail call void @av_packet_unref(ptr noundef nonnull %9) #6
  %11 = load ptr, ptr %3, align 8, !tbaa !62
  store ptr %11, ptr %9, align 8, !tbaa !63
  %12 = getelementptr inbounds nuw i8, ptr %11, i64 8
  %13 = load ptr, ptr %12, align 8, !tbaa !64
  %14 = getelementptr inbounds nuw i8, ptr %.026, i64 120
  store ptr %13, ptr %14, align 8, !tbaa !67
  %15 = getelementptr inbounds nuw i8, ptr %11, i64 16
  %16 = load i64, ptr %15, align 8, !tbaa !68
  %17 = trunc i64 %16 to i32
  %18 = add i32 %17, -64
  %19 = getelementptr inbounds nuw i8, ptr %.026, i64 128
  store i32 %18, ptr %19, align 8, !tbaa !69
  store ptr null, ptr %3, align 8, !tbaa !62
  br label %23

20:                                               ; preds = %8
  %21 = tail call i32 @av_get_packet(ptr noundef %2, ptr noundef nonnull %9, i32 noundef %4) #6
  %22 = icmp slt i32 %21, 0
  br i1 %22, label %35, label %23

23:                                               ; preds = %20, %10
  %24 = getelementptr inbounds nuw i8, ptr %.026, i64 64
  %25 = load i32, ptr %24, align 8, !tbaa !58
  %26 = or i32 %25, 1024
  store i32 %26, ptr %24, align 8, !tbaa !58
  %27 = getelementptr inbounds nuw i8, ptr %.026, i64 16
  %28 = load ptr, ptr %27, align 8, !tbaa !70
  store i32 0, ptr %28, align 8, !tbaa !71
  %29 = getelementptr inbounds nuw i8, ptr %.026, i64 8
  %30 = load i32, ptr %29, align 8, !tbaa !74
  %31 = getelementptr inbounds nuw i8, ptr %.026, i64 132
  store i32 %30, ptr %31, align 4, !tbaa !75
  %32 = getelementptr inbounds nuw i8, ptr %.026, i64 136
  %33 = load i32, ptr %32, align 8, !tbaa !76
  %34 = or i32 %33, 1
  store i32 %34, ptr %32, align 8, !tbaa !76
  br label %37

35:                                               ; preds = %20
  br i1 %.not, label %36, label %37

36:                                               ; preds = %35
  tail call void @ff_remove_stream(ptr noundef %0, ptr noundef nonnull %.026) #6
  br label %37

37:                                               ; preds = %35, %36, %6, %23
  %.0 = phi i32 [ 0, %23 ], [ -12, %6 ], [ %21, %36 ], [ %21, %35 ]
  ret i32 %.0
}